target datalayout = "e-m:e-p270:32:32-p271:32:32-p272:64:64-i64:64-i128:128-f80:128-n8:16:32:64-S128"
target triple = "x86_64-pc-linux-gnu"

%struct.ident_t = type { i32, i32, i32, i32, ptr }
%"class.ncnn::PReLU" = type { %"class.ncnn::Layer", i32, %"class.ncnn::Mat" }
%"class.ncnn::Layer" = type { ptr, i8, i8, i8, i8, i8, i8, i8, i8, i8, i8, i8, i8, i8, i8, i8, i8, i8, i8, i8, i8, i32, ptr, i32, %"class.std::__cxx11::basic_string", %"class.std::__cxx11::basic_string", %"class.std::vector", %"class.std::vector", %"class.std::vector.3", %"class.std::vector.3" }
%"class.std::__cxx11::basic_string" = type { %"struct.std::__cxx11::basic_string<char>::_Alloc_hider", i64, %union.anon }
%"struct.std::__cxx11::basic_string<char>::_Alloc_hider" = type { ptr }
%union.anon = type { i64, [8 x i8] }
%"class.std::vector" = type { %"struct.std::_Vector_base" }
%"struct.std::_Vector_base" = type { %"struct.std::_Vector_base<int, std::allocator<int>>::_Vector_impl" }
%"struct.std::_Vector_base<int, std::allocator<int>>::_Vector_impl" = type { %"struct.std::_Vector_base<int, std::allocator<int>>::_Vector_impl_data" }
%"struct.std::_Vector_base<int, std::allocator<int>>::_Vector_impl_data" = type { ptr, ptr, ptr }
%"class.std::vector.3" = type { %"struct.std::_Vector_base.4" }
%"struct.std::_Vector_base.4" = type { %"struct.std::_Vector_base<ncnn::Mat, std::allocator<ncnn::Mat>>::_Vector_impl" }
%"struct.std::_Vector_base<ncnn::Mat, std::allocator<ncnn::Mat>>::_Vector_impl" = type { %"struct.std::_Vector_base<ncnn::Mat, std::allocator<ncnn::Mat>>::_Vector_impl_data" }
%"struct.std::_Vector_base<ncnn::Mat, std::allocator<ncnn::Mat>>::_Vector_impl_data" = type { ptr, ptr, ptr }
%"class.ncnn::Mat" = type { ptr, ptr, i64, i32, ptr, i32, i32, i32, i32, i32, i64 }
%"class.ncnn::Option" = type { i8, i32, ptr, ptr, i32, i8, i8, i8, i8, i8, i8, i8, i8, i8, i8, i8, i8, i8, i8, i8, i8, i8, i8, i8, i8, i32, i8, i8, i8, i8, i8, i8, i8, i8, i8, i8, i8, i8 }

@2 = private unnamed_addr constant %struct.ident_t { i32 0, i32 2, i32 0, i32 22, ptr @0 }, align 8

; Function Attrs: alwaysinline mustprogress nounwind uwtable
define linkonce_odr hidden noundef nonnull align 4 dereferenceable(4) ptr @_ZNK4ncnn3MatixEm(ptr noundef nonnull align 8 dereferenceable(72) %0, i64 noundef %1) #3 comdat align 2 {
  %3 = alloca ptr, align 8
  %4 = alloca i64, align 8
  store ptr %0, ptr %3, align 8, !tbaa !36
  store i64 %1, ptr %4, align 8, !tbaa !64
  %5 = load ptr, ptr %3, align 8
  %6 = getelementptr inbounds nuw %"class.ncnn::Mat", ptr %5, i32 0, i32 0
  %7 = load ptr, ptr %6, align 8, !tbaa !52
  %8 = load i64, ptr %4, align 8, !tbaa !64
  %9 = getelementptr inbounds nuw float, ptr %7, i64 %8
  ret ptr %9
}

; Function Attrs: alwaysinline mustprogress nounwind uwtable
define linkonce_odr hidden noundef ptr @_ZN4ncnn3MatcvPT_IfEEv(ptr noundef nonnull align 8 dereferenceable(72) %0) #3 comdat align 2 {
  %2 = alloca ptr, align 8
  store ptr %0, ptr %2, align 8, !tbaa !36
  %3 = load ptr, ptr %2, align 8
  %4 = getelementptr inbounds nuw %"class.ncnn::Mat", ptr %3, i32 0, i32 0
  %5 = load ptr, ptr %4, align 8, !tbaa !52
  ret ptr %5
}

; Function Attrs: mustprogress uwtable
define hidden noundef i32 @_ZNK4ncnn5PReLU15forward_inplaceERNS_3MatERKNS_6OptionE(ptr noundef nonnull align 8 dereferenceable(288) %0, ptr noundef nonnull align 8 dereferenceable(72) %1, ptr noundef nonnull align 8 dereferenceable(64) %2) unnamed_addr #1 align 2 {
  %4 = alloca ptr, align 8
  %5 = alloca ptr, align 8
  %6 = alloca ptr, align 8
  %7 = alloca i32, align 4
  %8 = alloca i32, align 4
  %9 = alloca ptr, align 8
  %10 = alloca float, align 4
  %11 = alloca i32, align 4
  %12 = alloca i32, align 4
  %13 = alloca i32, align 4
  %14 = alloca i32, align 4
  %15 = alloca i32, align 4
  %16 = alloca i32, align 4
  %17 = call i32 @__kmpc_global_thread_num(ptr @2)
  store ptr %0, ptr %4, align 8, !tbaa !4
  store ptr %1, ptr %5, align 8, !tbaa !36
  store ptr %2, ptr %6, align 8, !tbaa !37
  %18 = load ptr, ptr %4, align 8
  call void @llvm.lifetime.start.p0(i64 4, ptr %7) #9
  %19 = load ptr, ptr %5, align 8, !tbaa !36
  %20 = getelementptr inbounds nuw %"class.ncnn::Mat", ptr %19, i32 0, i32 5
  %21 = load i32, ptr %20, align 8, !tbaa !39
  store i32 %21, ptr %7, align 4, !tbaa !40
  %22 = load i32, ptr %7, align 4, !tbaa !40
  %23 = icmp eq i32 %22, 1
  br i1 %23, label %24, label %45

24:                                               ; preds = %3
  call void @llvm.lifetime.start.p0(i64 4, ptr %8) #9
  %25 = load ptr, ptr %5, align 8, !tbaa !36
  %26 = getelementptr inbounds nuw %"class.ncnn::Mat", ptr %25, i32 0, i32 6
  %27 = load i32, ptr %26, align 4, !tbaa !41
  store i32 %27, ptr %8, align 4, !tbaa !40
  call void @llvm.lifetime.start.p0(i64 8, ptr %9) #9
  %28 = load ptr, ptr %5, align 8, !tbaa !36
  %29 = call noundef ptr @_ZN4ncnn3MatcvPT_IfEEv(ptr noundef nonnull align 8 dereferenceable(72) %28)
  store ptr %29, ptr %9, align 8, !tbaa !42
  %30 = getelementptr inbounds nuw %"class.ncnn::PReLU", ptr %18, i32 0, i32 1
  %31 = load i32, ptr %30, align 8, !tbaa !13
  %32 = icmp sgt i32 %31, 1
  br i1 %32, label %33, label %37

33:                                               ; preds = %24
  %34 = load ptr, ptr %6, align 8, !tbaa !37
  %35 = getelementptr inbounds nuw %"class.ncnn::Option", ptr %34, i32 0, i32 1
  %36 = load i32, ptr %35, align 4, !tbaa !44
  call void @__kmpc_push_num_threads(ptr @2, i32 %17, i32 %36)
  call void (ptr, i32, ptr, ...) @__kmpc_fork_call(ptr @2, i32 3, ptr @_ZNK4ncnn5PReLU15forward_inplaceERNS_3MatERKNS_6OptionE.omp_outlined, ptr %8, ptr %9, ptr %18)
  br label %44

37:                                               ; preds = %24
  call void @llvm.lifetime.start.p0(i64 4, ptr %10) #9
  %38 = getelementptr inbounds nuw %"class.ncnn::PReLU", ptr %18, i32 0, i32 2
  %39 = call noundef nonnull align 4 dereferenceable(4) ptr @_ZNK4ncnn3MatixEm(ptr noundef nonnull align 8 dereferenceable(72) %38, i64 noundef 0)
  %40 = load float, ptr %39, align 4, !tbaa !46
  store float %40, ptr %10, align 4, !tbaa !46
  %41 = load ptr, ptr %6, align 8, !tbaa !37
  %42 = getelementptr inbounds nuw %"class.ncnn::Option", ptr %41, i32 0, i32 1
  %43 = load i32, ptr %42, align 4, !tbaa !44
  call void @__kmpc_push_num_threads(ptr @2, i32 %17, i32 %43)
  call void (ptr, i32, ptr, ...) @__kmpc_fork_call(ptr @2, i32 3, ptr @_ZNK4ncnn5PReLU15forward_inplaceERNS_3MatERKNS_6OptionE.omp_outlined.1, ptr %8, ptr %9, ptr %10)
  call void @llvm.lifetime.end.p0(i64 4, ptr %10) #9
  br label %44

44:                                               ; preds = %37, %33
  call void @llvm.lifetime.end.p0(i64 8, ptr %9) #9
  call void @llvm.lifetime.end.p0(i64 4, ptr %8) #9
  br label %45

45:                                               ; preds = %44, %3
  %46 = load i32, ptr %7, align 4, !tbaa !40
  %47 = icmp eq i32 %46, 2
  br i1 %47, label %48, label %59

48:                                               ; preds = %45
  call void @llvm.lifetime.start.p0(i64 4, ptr %11) #9
  %49 = load ptr, ptr %5, align 8, !tbaa !36
  %50 = getelementptr inbounds nuw %"class.ncnn::Mat", ptr %49, i32 0, i32 6
  %51 = load i32, ptr %50, align 4, !tbaa !41
  store i32 %51, ptr %11, align 4, !tbaa !40
  call void @llvm.lifetime.start.p0(i64 4, ptr %12) #9
  %52 = load ptr, ptr %5, align 8, !tbaa !36
  %53 = getelementptr inbounds nuw %"class.ncnn::Mat", ptr %52, i32 0, i32 7
  %54 = load i32, ptr %53, align 8, !tbaa !48
  store i32 %54, ptr %12, align 4, !tbaa !40
  %55 = load ptr, ptr %6, align 8, !tbaa !37
  %56 = getelementptr inbounds nuw %"class.ncnn::Option", ptr %55, i32 0, i32 1
  %57 = load i32, ptr %56, align 4, !tbaa !44
  call void @__kmpc_push_num_threads(ptr @2, i32 %17, i32 %57)
  %58 = load ptr, ptr %5, align 8, !tbaa !36
  call void (ptr, i32, ptr, ...) @__kmpc_fork_call(ptr @2, i32 4, ptr @_ZNK4ncnn5PReLU15forward_inplaceERNS_3MatERKNS_6OptionE.omp_outlined.2, ptr %12, ptr %58, ptr %18, ptr %11)
  call void @llvm.lifetime.end.p0(i64 4, ptr %12) #9
  call void @llvm.lifetime.end.p0(i64 4, ptr %11) #9
  br label %59

59:                                               ; preds = %48, %45
  %60 = load i32, ptr %7, align 4, !tbaa !40
  %61 = icmp eq i32 %60, 3
  br i1 %61, label %62, label %79

62:                                               ; preds = %59
  call void @llvm.lifetime.start.p0(i64 4, ptr %13) #9
  %63 = load ptr, ptr %5, align 8, !tbaa !36
  %64 = getelementptr inbounds nuw %"class.ncnn::Mat", ptr %63, i32 0, i32 6
  %65 = load i32, ptr %64, align 4, !tbaa !41
  store i32 %65, ptr %13, align 4, !tbaa !40
  call void @llvm.lifetime.start.p0(i64 4, ptr %14) #9
  %66 = load ptr, ptr %5, align 8, !tbaa !36
  %67 = getelementptr inbounds nuw %"class.ncnn::Mat", ptr %66, i32 0, i32 7
  %68 = load i32, ptr %67, align 8, !tbaa !48
  store i32 %68, ptr %14, align 4, !tbaa !40
  call void @llvm.lifetime.start.p0(i64 4, ptr %15) #9
  %69 = load ptr, ptr %5, align 8, !tbaa !36
  %70 = getelementptr inbounds nuw %"class.ncnn::Mat", ptr %69, i32 0, i32 9
  %71 = load i32, ptr %70, align 8, !tbaa !49
  store i32 %71, ptr %15, align 4, !tbaa !40
  call void @llvm.lifetime.start.p0(i64 4, ptr %16) #9
  %72 = load i32, ptr %13, align 4, !tbaa !40
  %73 = load i32, ptr %14, align 4, !tbaa !40
  %74 = mul nsw i32 %72, %73
  store i32 %74, ptr %16, align 4, !tbaa !40
  %75 = load ptr, ptr %6, align 8, !tbaa !37
  %76 = getelementptr inbounds nuw %"class.ncnn::Option", ptr %75, i32 0, i32 1
  %77 = load i32, ptr %76, align 4, !tbaa !44
  call void @__kmpc_push_num_threads(ptr @2, i32 %17, i32 %77)
  %78 = load ptr, ptr %5, align 8, !tbaa !36
  call void (ptr, i32, ptr, ...) @__kmpc_fork_call(ptr @2, i32 4, ptr @_ZNK4ncnn5PReLU15forward_inplaceERNS_3MatERKNS_6OptionE.omp_outlined.3, ptr %15, ptr %78, ptr %18, ptr %16)
  call void @llvm.lifetime.end.p0(i64 4, ptr %16) #9
  call void @llvm.lifetime.end.p0(i64 4, ptr %15) #9
  call void @llvm.lifetime.end.p0(i64 4, ptr %14) #9
  call void @llvm.lifetime.end.p0(i64 4, ptr %13) #9
  br label %79

79:                                               ; preds = %62, %59
  call void @llvm.lifetime.end.p0(i64 4, ptr %7) #9
  ret i32 0
}