; Function Attrs: mustprogress nounwind uwtable
define hidden noundef i32 @_ZNK4ncnn5PReLU15forward_inplaceERNS_3MatERKNS_6OptionE(ptr noundef nonnull align 8 dereferenceable(288) %0, ptr noundef nonnull align 8 dereferenceable(72) %1, ptr noundef nonnull readonly align 8 captures(none) dereferenceable(64) %2) unnamed_addr #3 align 2 {
  %4 = alloca i32, align 4
  %5 = alloca ptr, align 8
  %6 = alloca float, align 4
  %7 = alloca i32, align 4
  %8 = alloca i32, align 4
  %9 = alloca i32, align 4
  %10 = alloca i32, align 4
  %11 = tail call i32 @__kmpc_global_thread_num(ptr nonnull @2)
  %12 = getelementptr inbounds nuw i8, ptr %1, i64 40
  %13 = load i32, ptr %12, align 8, !tbaa !36
  switch i32 %13, label %48 [
    i32 1, label %14
    i32 2, label %31
    i32 3, label %38
  ]

14:                                               ; preds = %3
  call void @llvm.lifetime.start.p0(i64 4, ptr nonnull %4) #10
  %15 = getelementptr inbounds nuw i8, ptr %1, i64 44
  %16 = load i32, ptr %15, align 4, !tbaa !37
  store i32 %16, ptr %4, align 4, !tbaa !41
  call void @llvm.lifetime.start.p0(i64 8, ptr nonnull %5) #10
  %17 = load ptr, ptr %1, align 8, !tbaa !16
  store ptr %17, ptr %5, align 8, !tbaa !42
  %18 = getelementptr inbounds nuw i8, ptr %0, i64 208
  %19 = load i32, ptr %18, align 8, !tbaa !18
  %20 = icmp sgt i32 %19, 1
  br i1 %20, label %21, label %24

21:                                               ; preds = %14
  %22 = getelementptr inbounds nuw i8, ptr %2, i64 4
  %23 = load i32, ptr %22, align 4, !tbaa !44
  tail call void @__kmpc_push_num_threads(ptr nonnull @2, i32 %11, i32 %23)
  call void (ptr, i32, ptr, ...) @__kmpc_fork_call(ptr nonnull @2, i32 3, ptr nonnull @_ZNK4ncnn5PReLU15forward_inplaceERNS_3MatERKNS_6OptionE.omp_outlined, ptr nonnull %4, ptr nonnull %5, ptr nonnull %0)
  br label %30

24:                                               ; preds = %14
  call void @llvm.lifetime.start.p0(i64 4, ptr nonnull %6) #10
  %25 = getelementptr inbounds nuw i8, ptr %0, i64 216
  %26 = load ptr, ptr %25, align 8, !tbaa !16
  %27 = load float, ptr %26, align 4, !tbaa !46
  store float %27, ptr %6, align 4, !tbaa !46
  %28 = getelementptr inbounds nuw i8, ptr %2, i64 4
  %29 = load i32, ptr %28, align 4, !tbaa !44
  tail call void @__kmpc_push_num_threads(ptr nonnull @2, i32 %11, i32 %29)
  call void (ptr, i32, ptr, ...) @__kmpc_fork_call(ptr nonnull @2, i32 3, ptr nonnull @_ZNK4ncnn5PReLU15forward_inplaceERNS_3MatERKNS_6OptionE.omp_outlined.1, ptr nonnull %4, ptr nonnull %5, ptr nonnull %6)
  call void @llvm.lifetime.end.p0(i64 4, ptr nonnull %6) #10
  br label %30

30:                                               ; preds = %24, %21
  call void @llvm.lifetime.end.p0(i64 8, ptr nonnull %5) #10
  call void @llvm.lifetime.end.p0(i64 4, ptr nonnull %4) #10
  br label %48

31:                                               ; preds = %3
  call void @llvm.lifetime.start.p0(i64 4, ptr nonnull %7) #10
  %32 = getelementptr inbounds nuw i8, ptr %1, i64 44
  %33 = load i32, ptr %32, align 4, !tbaa !37
  store i32 %33, ptr %7, align 4, !tbaa !41
  call void @llvm.lifetime.start.p0(i64 4, ptr nonnull %8) #10
  %34 = getelementptr inbounds nuw i8, ptr %1, i64 48
  %35 = load i32, ptr %34, align 8, !tbaa !38
  store i32 %35, ptr %8, align 4, !tbaa !41
  %36 = getelementptr inbounds nuw i8, ptr %2, i64 4
  %37 = load i32, ptr %36, align 4, !tbaa !44
  tail call void @__kmpc_push_num_threads(ptr nonnull @2, i32 %11, i32 %37)
  call void (ptr, i32, ptr, ...) @__kmpc_fork_call(ptr nonnull @2, i32 4, ptr nonnull @_ZNK4ncnn5PReLU15forward_inplaceERNS_3MatERKNS_6OptionE.omp_outlined.2, ptr nonnull %8, ptr nonnull %1, ptr nonnull %0, ptr nonnull %7)
  call void @llvm.lifetime.end.p0(i64 4, ptr nonnull %8) #10
  call void @llvm.lifetime.end.p0(i64 4, ptr nonnull %7) #10
  br label %48

38:                                               ; preds = %3
  %39 = getelementptr inbounds nuw i8, ptr %1, i64 44
  %40 = load i32, ptr %39, align 4, !tbaa !37
  %41 = getelementptr inbounds nuw i8, ptr %1, i64 48
  %42 = load i32, ptr %41, align 8, !tbaa !38
  call void @llvm.lifetime.start.p0(i64 4, ptr nonnull %9) #10
  %43 = getelementptr inbounds nuw i8, ptr %1, i64 56
  %44 = load i32, ptr %43, align 8, !tbaa !40
  store i32 %44, ptr %9, align 4, !tbaa !41
  call void @llvm.lifetime.start.p0(i64 4, ptr nonnull %10) #10
  %45 = mul nsw i32 %42, %40
  store i32 %45, ptr %10, align 4, !tbaa !41
  %46 = getelementptr inbounds nuw i8, ptr %2, i64 4
  %47 = load i32, ptr %46, align 4, !tbaa !44
  tail call void @__kmpc_push_num_threads(ptr nonnull @2, i32 %11, i32 %47)
  call void (ptr, i32, ptr, ...) @__kmpc_fork_call(ptr nonnull @2, i32 4, ptr nonnull @_ZNK4ncnn5PReLU15forward_inplaceERNS_3MatERKNS_6OptionE.omp_outlined.3, ptr nonnull %9, ptr nonnull %1, ptr nonnull %0, ptr nonnull %10)
  call void @llvm.lifetime.end.p0(i64 4, ptr nonnull %10) #10
  call void @llvm.lifetime.end.p0(i64 4, ptr nonnull %9) #10
  br label %48

48:                                               ; preds = %31, %30, %3, %38
  ret i32 0
}